target datalayout = "e-m:e-p270:32:32-p271:32:32-p272:64:64-i64:64-i128:128-f80:128-n8:16:32:64-S128"
target triple = "x86_64-pc-linux-gnu"

; Function Attrs: alwaysinline nounwind willreturn memory(none) uwtable
define internal zeroext i8 @av_clip_uint8_c(i32 noundef %0) #4 {
  %2 = alloca i8, align 1
  %3 = alloca i32, align 4
  store i32 %0, ptr %3, align 4, !tbaa !9
  %4 = load i32, ptr %3, align 4, !tbaa !9
  %5 = and i32 %4, -256
  %6 = icmp ne i32 %5, 0
  br i1 %6, label %7, label %12

7:                                                ; preds = %1
  %8 = load i32, ptr %3, align 4, !tbaa !9
  %9 = xor i32 %8, -1
  %10 = ashr i32 %9, 31
  %11 = trunc i32 %10 to i8
  store i8 %11, ptr %2, align 1
  br label %15

12:                                               ; preds = %1
  %13 = load i32, ptr %3, align 4, !tbaa !9
  %14 = trunc i32 %13 to i8
  store i8 %14, ptr %2, align 1
  br label %15

15:                                               ; preds = %12, %7
  %16 = load i8, ptr %2, align 1
  ret i8 %16
}

; Function Attrs: nounwind uwtable
define internal void @put_pixels_clamped4_c(ptr noundef %0, ptr noalias noundef %1, i32 noundef %2) #3 {
  %4 = alloca ptr, align 8
  %5 = alloca ptr, align 8
  %6 = alloca i32, align 4
  %7 = alloca i32, align 4
  store ptr %0, ptr %4, align 8, !tbaa !18
  store ptr %1, ptr %5, align 8, !tbaa !4
  store i32 %2, ptr %6, align 4, !tbaa !9
  call void @llvm.lifetime.start.p0(i64 4, ptr %7) #5
  store i32 0, ptr %7, align 4, !tbaa !9
  br label %8

8:                                                ; preds = %46, %3
  %9 = load i32, ptr %7, align 4, !tbaa !9
  %10 = icmp slt i32 %9, 4
  br i1 %10, label %11, label %49

11:                                               ; preds = %8
  %12 = load ptr, ptr %4, align 8, !tbaa !18
  %13 = getelementptr inbounds i16, ptr %12, i64 0
  %14 = load i16, ptr %13, align 2, !tbaa !22
  %15 = sext i16 %14 to i32
  %16 = call zeroext i8 @av_clip_uint8_c(i32 noundef %15) #6
  %17 = load ptr, ptr %5, align 8, !tbaa !4
  %18 = getelementptr inbounds i8, ptr %17, i64 0
  store i8 %16, ptr %18, align 1, !tbaa !11
  %19 = load ptr, ptr %4, align 8, !tbaa !18
  %20 = getelementptr inbounds i16, ptr %19, i64 1
  %21 = load i16, ptr %20, align 2, !tbaa !22
  %22 = sext i16 %21 to i32
  %23 = call zeroext i8 @av_clip_uint8_c(i32 noundef %22) #6
  %24 = load ptr, ptr %5, align 8, !tbaa !4
  %25 = getelementptr inbounds i8, ptr %24, i64 1
  store i8 %23, ptr %25, align 1, !tbaa !11
  %26 = load ptr, ptr %4, align 8, !tbaa !18
  %27 = getelementptr inbounds i16, ptr %26, i64 2
  %28 = load i16, ptr %27, align 2, !tbaa !22
  %29 = sext i16 %28 to i32
  %30 = call zeroext i8 @av_clip_uint8_c(i32 noundef %29) #6
  %31 = load ptr, ptr %5, align 8, !tbaa !4
  %32 = getelementptr inbounds i8, ptr %31, i64 2
  store i8 %30, ptr %32, align 1, !tbaa !11
  %33 = load ptr, ptr %4, align 8, !tbaa !18
  %34 = getelementptr inbounds i16, ptr %33, i64 3
  %35 = load i16, ptr %34, align 2, !tbaa !22
  %36 = sext i16 %35 to i32
  %37 = call zeroext i8 @av_clip_uint8_c(i32 noundef %36) #6
  %38 = load ptr, ptr %5, align 8, !tbaa !4
  %39 = getelementptr inbounds i8, ptr %38, i64 3
  store i8 %37, ptr %39, align 1, !tbaa !11
  %40 = load i32, ptr %6, align 4, !tbaa !9
  %41 = load ptr, ptr %5, align 8, !tbaa !4
  %42 = sext i32 %40 to i64
  %43 = getelementptr inbounds i8, ptr %41, i64 %42
  store ptr %43, ptr %5, align 8, !tbaa !4
  %44 = load ptr, ptr %4, align 8, !tbaa !18
  %45 = getelementptr inbounds i16, ptr %44, i64 8
  store ptr %45, ptr %4, align 8, !tbaa !18
  br label %46

46:                                               ; preds = %11
  %47 = load i32, ptr %7, align 4, !tbaa !9
  %48 = add nsw i32 %47, 1
  store i32 %48, ptr %7, align 4, !tbaa !9
  br label %8, !llvm.loop !59

49:                                               ; preds = %8
  call void @llvm.lifetime.end.p0(i64 4, ptr %7) #5
  ret void
}

; Function Attrs: nounwind uwtable
define internal void @ff_jref_idct4_put(ptr noundef %0, i64 noundef %1, ptr noundef %2) #3 {
  %4 = alloca ptr, align 8
  %5 = alloca i64, align 8
  %6 = alloca ptr, align 8
  store ptr %0, ptr %4, align 8, !tbaa !4
  store i64 %1, ptr %5, align 8, !tbaa !20
  store ptr %2, ptr %6, align 8, !tbaa !18
  %7 = load ptr, ptr %6, align 8, !tbaa !18
  call void @ff_j_rev_dct4(ptr noundef %7)
  %8 = load ptr, ptr %6, align 8, !tbaa !18
  %9 = load ptr, ptr %4, align 8, !tbaa !4
  %10 = load i64, ptr %5, align 8, !tbaa !20
  %11 = trunc i64 %10 to i32
  call void @put_pixels_clamped4_c(ptr noundef %8, ptr noundef %9, i32 noundef %11)
  ret void
}