; Function Attrs: nounwind uwtable
define internal void @ff_jref_idct4_put(ptr noundef writeonly captures(none) %0, i64 noundef %1, ptr noundef %2) #4 {
  tail call void @ff_j_rev_dct4(ptr noundef %2) #7
  tail call void @llvm.experimental.noalias.scope.decl(metadata !49)
  %sext = shl i64 %1, 32
  %4 = ashr exact i64 %sext, 32
  br label %5

5:                                                ; preds = %5, %3
  %.025.i = phi i32 [ 0, %3 ], [ %26, %5 ]
  %.01224.i = phi ptr [ %2, %3 ], [ %25, %5 ]
  %.01323.i = phi ptr [ %0, %3 ], [ %24, %5 ]
  %6 = load i16, ptr %.01224.i, align 2, !tbaa !13, !noalias !49
  %.not.i20.i = icmp ult i16 %6, 256
  %isnotneg.i21.i = icmp sgt i16 %6, -1
  %7 = sext i1 %isnotneg.i21.i to i8
  %8 = trunc i16 %6 to i8
  %.0.i22.i = select i1 %.not.i20.i, i8 %8, i8 %7
  store i8 %.0.i22.i, ptr %.01323.i, align 1, !tbaa !4, !alias.scope !49
  %9 = getelementptr inbounds nuw i8, ptr %.01224.i, i64 2
  %10 = load i16, ptr %9, align 2, !tbaa !13, !noalias !49
  %.not.i17.i = icmp ult i16 %10, 256
  %isnotneg.i18.i = icmp sgt i16 %10, -1
  %11 = sext i1 %isnotneg.i18.i to i8
  %12 = trunc i16 %10 to i8
  %.0.i19.i = select i1 %.not.i17.i, i8 %12, i8 %11
  %13 = getelementptr inbounds nuw i8, ptr %.01323.i, i64 1
  store i8 %.0.i19.i, ptr %13, align 1, !tbaa !4, !alias.scope !49
  %14 = getelementptr inbounds nuw i8, ptr %.01224.i, i64 4
  %15 = load i16, ptr %14, align 2, !tbaa !13, !noalias !49
  %.not.i14.i = icmp ult i16 %15, 256
  %isnotneg.i15.i = icmp sgt i16 %15, -1
  %16 = sext i1 %isnotneg.i15.i to i8
  %17 = trunc i16 %15 to i8
  %.0.i16.i = select i1 %.not.i14.i, i8 %17, i8 %16
  %18 = getelementptr inbounds nuw i8, ptr %.01323.i, i64 2
  store i8 %.0.i16.i, ptr %18, align 1, !tbaa !4, !alias.scope !49
  %19 = getelementptr inbounds nuw i8, ptr %.01224.i, i64 6
  %20 = load i16, ptr %19, align 2, !tbaa !13, !noalias !49
  %.not.i.i = icmp ult i16 %20, 256
  %isnotneg.i.i = icmp sgt i16 %20, -1
  %21 = sext i1 %isnotneg.i.i to i8
  %22 = trunc i16 %20 to i8
  %.0.i.i = select i1 %.not.i.i, i8 %22, i8 %21
  %23 = getelementptr inbounds nuw i8, ptr %.01323.i, i64 3
  store i8 %.0.i.i, ptr %23, align 1, !tbaa !4, !alias.scope !49
  %24 = getelementptr inbounds i8, ptr %.01323.i, i64 %4
  %25 = getelementptr inbounds nuw i8, ptr %.01224.i, i64 16
  %26 = add nuw nsw i32 %.025.i, 1
  %exitcond.not.i = icmp eq i32 %26, 4
  br i1 %exitcond.not.i, label %put_pixels_clamped4_c.exit, label %5, !llvm.loop !52

put_pixels_clamped4_c.exit:                       ; preds = %5
  ret void
}